; Function Attrs: mustprogress uwtable
define void @_ZN6gmxapi10MDWorkSpec9addModuleESt10shared_ptrINS_8MDModuleEE(ptr nocapture noundef nonnull readonly align 8 dereferenceable(8) %0, ptr noundef %1) local_unnamed_addr #0 align 2 {
  %3 = load ptr, ptr %0, align 8
  %4 = getelementptr inbounds i8, ptr %3, i64 8
  %5 = load ptr, ptr %4, align 8
  %6 = getelementptr inbounds i8, ptr %3, i64 16
  %7 = load ptr, ptr %6, align 8
  %.not.i = icmp eq ptr %5, %7
  br i1 %.not.i, label %15, label %8

8:                                                ; preds = %2
  %9 = load ptr, ptr %1, align 8
  store ptr %9, ptr %5, align 8
  %10 = getelementptr inbounds i8, ptr %5, i64 8
  store ptr null, ptr %10, align 8
  %11 = getelementptr inbounds i8, ptr %1, i64 8
  %12 = load ptr, ptr %11, align 8
  store ptr null, ptr %11, align 8
  store ptr %12, ptr %10, align 8
  store ptr null, ptr %1, align 8
  %13 = load ptr, ptr %4, align 8
  %14 = getelementptr inbounds i8, ptr %13, i64 16
  store ptr %14, ptr %4, align 8
  br label %_ZNSt6vectorISt10shared_ptrIN6gmxapi8MDModuleEESaIS3_EE12emplace_backIJS3_EEERS3_DpOT_.exit

15:                                               ; preds = %2
  tail call void @_ZNSt6vectorISt10shared_ptrIN6gmxapi8MDModuleEESaIS3_EE17_M_realloc_insertIJS3_EEEvN9__gnu_cxx17__normal_iteratorIPS3_S5_EEDpOT_(ptr noundef nonnull align 8 dereferenceable(24) %3, ptr %5, ptr noundef nonnull align 8 dereferenceable(16) %1)
  br label %_ZNSt6vectorISt10shared_ptrIN6gmxapi8MDModuleEESaIS3_EE12emplace_backIJS3_EEERS3_DpOT_.exit

_ZNSt6vectorISt10shared_ptrIN6gmxapi8MDModuleEESaIS3_EE12emplace_backIJS3_EEERS3_DpOT_.exit: ; preds = %8, %15
  ret void
}